Certificate:
    Data:
        Version: 3 (0x2)
        Serial Number: 4097 (0x1001)
    Signature Algorithm: sha1WithRSAEncryption
        Issuer: C=AU, ST=Some-State, O=Internet Widgits Pty Ltd
        Validity
            Not Before: Nov 15 22:19:41 2017 GMT
            Not After : Nov 15 22:19:41 2018 GMT
        Subject: C=CA, ST=QB, L=Qubec City, O=UoT, OU=96, CN=Billy/emailAddress=email@gmail.com
        Subject Public Key Info:
            Public Key Algorithm: rsaEncryption
                Public-Key: (1024 bit)
                Modulus:
                    00:ae:30:46:7d:c3:ec:26:80:47:1a:21:ec:2c:7e:
                    15:e9:d3:b5:0d:f3:66:7b:ff:0d:c0:70:e9:30:89:
                    4e:ae:65:66:ba:44:f2:72:47:69:a9:8d:7d:b0:1b:
                    f9:45:d1:ea:91:c8:de:13:5e:d5:76:d0:0c:40:75:
                    c4:97:c4:30:bb:fe:a0:f2:21:59:cc:98:45:d8:bc:
                    d0:04:d6:bc:43:d8:51:98:9e:77:96:eb:82:58:a8:
                    8b:41:94:5d:75:ec:27:e5:b4:f0:70:2b:4c:59:65:
                    d6:27:10:a4:b0:f3:c3:8e:c6:19:7d:74:f6:8c:ef:
                    41:b0:2e:05:f2:43:c6:4a:6d
                Exponent: 65537 (0x10001)
        X509v3 extensions:
            X509v3 Basic Constraints: 
                CA:FALSE
            Netscape Comment: 
                OpenSSL Generated Certificate
            X509v3 Subject Key Identifier: 
                17:6F:FC:1B:52:1F:8F:79:9E:96:14:8E:D5:95:97:C5:13:08:86:3B
            X509v3 Authority Key Identifier: 
                keyid:69:74:65:12:FB:85:D7:BF:09:E3:DF:EE:C9:61:32:FC:65:33:7A:13

    Signature Algorithm: sha1WithRSAEncryption
         9b:ee:fd:53:4b:e0:2b:37:fd:9d:de:16:86:ac:74:54:1e:bf:
         43:66:b5:27:b7:97:84:56:57:77:4a:bb:32:0b:d8:d1:0e:ec:
         7b:fd:1a:fe:0d:c8:24:65:5f:3f:be:c8:5f:d2:f5:df:4a:7e:
         42:41:56:41:d4:60:43:21:da:49:a5:f9:3b:4c:cf:a2:2c:d7:
         57:84:35:ff:ed:e6:39:bf:1d:3e:50:f8:60:99:74:b5:5f:ec:
         44:b7:05:f9:ca:d8:f4:c4:ad:6c:a5:67:c0:0d:82:2f:ea:1c:
         f9:cf:94:9e:62:91:16:63:de:5b:4b:ef:eb:7f:e5:c5:fa:15:
         b5:4a
-----BEGIN CERTIFICATE-----
MIICsTCCAhqgAwIBAgICEAEwDQYJKoZIhvcNAQEFBQAwRTELMAkGA1UEBhMCQVUx
EzARBgNVBAgTClNvbWUtU3RhdGUxITAfBgNVBAoTGEludGVybmV0IFdpZGdpdHMg
UHR5IEx0ZDAeFw0xNzExMTUyMjE5NDFaFw0xODExMTUyMjE5NDFaMHoxCzAJBgNV
BAYTAkNBMQswCQYDVQQIDAJRQjETMBEGA1UEBwwKUXViZWMgQ2l0eTEMMAoGA1UE
CgwDVW9UMQswCQYDVQQLDAI5NjEOMAwGA1UEAwwFQmlsbHkxHjAcBgkqhkiG9w0B
CQEWD2VtYWlsQGdtYWlsLmNvbTCBnzANBgkqhkiG9w0BAQEFAAOBjQAwgYkCgYEA
rjBGfcPsJoBHGiHsLH4V6dO1DfNme/8NwHDpMIlOrmVmukTyckdpqY19sBv5RdHq
kcjeE17VdtAMQHXEl8Qwu/6g8iFZzJhF2LzQBNa8Q9hRmJ53luuCWKiLQZRddewn
5bTwcCtMWWXWJxCksPPDjsYZfXT2jO9BsC4F8kPGSm0CAwEAAaN7MHkwCQYDVR0T
BAIwADAsBglghkgBhvhCAQ0EHxYdT3BlblNTTCBHZW5lcmF0ZWQgQ2VydGlmaWNh
dGUwHQYDVR0OBBYEFBdv/BtSH495npYUjtWVl8UTCIY7MB8GA1UdIwQYMBaAFGl0
ZRL7hde/CePf7slhMvxlM3oTMA0GCSqGSIb3DQEBBQUAA4GBAJvu/VNL4Cs3/Z3e
FoasdFQev0NmtSe3l4RWV3dKuzIL2NEO7Hv9Gv4NyCRlXz++yF/S9d9KfkJBVkHU
YEMh2kml+TtMz6Is11eENf/t5jm/HT5Q+GCZdLVf7ES3BfnK2PTErWylZ8ANgi/q
HPnPlJ5ikRZj3ltL7+t/5cX6FbVK
-----END CERTIFICATE-----
