Certificate:
    Data:
        Version: 3 (0x2)
        Serial Number: 4096 (0x1000)
    Signature Algorithm: sha1WithRSAEncryption
        Issuer: C=AU, ST=Some-State, O=Internet Widgits Pty Ltd
        Validity
            Not Before: Nov 15 19:46:02 2017 GMT
            Not After : Nov 15 19:46:02 2018 GMT
        Subject: C=CA, ST=Ontario, L=Mississauga, O=toBeSigned.com, OU=IT Department, CN=*.toBeSigned.com
        Subject Public Key Info:
            Public Key Algorithm: rsaEncryption
                Public-Key: (1024 bit)
                Modulus:
                    00:cd:f6:b1:02:9a:11:5b:5e:29:56:c7:bd:c8:5f:
                    f8:55:81:11:a5:65:7b:75:5b:fa:44:f6:59:61:a0:
                    58:ad:2d:5d:7e:6a:4d:69:64:f3:72:09:9b:6c:da:
                    93:35:ff:5c:4a:8f:67:ea:e4:bd:14:7a:9f:a6:fb:
                    78:46:1b:3a:23:0e:98:1d:f2:88:4e:c5:05:99:aa:
                    53:37:0a:a9:bc:8c:fc:0c:1c:48:85:f1:36:ba:37:
                    c1:66:66:f5:fe:1f:7a:44:15:5c:d4:66:22:d2:a2:
                    44:d4:46:2b:d4:30:0f:92:4c:dd:18:ae:55:92:b8:
                    2e:27:41:2d:f0:4b:3b:31:d9
                Exponent: 65537 (0x10001)
        X509v3 extensions:
            X509v3 Basic Constraints: 
                CA:FALSE
            Netscape Comment: 
                OpenSSL Generated Certificate
            X509v3 Subject Key Identifier: 
                DB:3E:E5:B0:27:44:11:BA:0A:73:51:B6:50:D3:89:2C:5B:30:FD:1A
            X509v3 Authority Key Identifier: 
                keyid:69:74:65:12:FB:85:D7:BF:09:E3:DF:EE:C9:61:32:FC:65:33:7A:13

    Signature Algorithm: sha1WithRSAEncryption
         28:69:8e:f1:e6:62:1e:e0:dd:51:29:09:c9:0c:24:da:50:b1:
         35:df:7c:af:ef:72:e2:cc:4c:39:02:df:73:9f:4b:7f:c0:24:
         05:0d:b1:25:5d:e2:0d:f7:9f:6f:9c:cf:59:19:a4:a8:28:d4:
         4b:48:53:08:63:5a:0b:25:37:00:6c:e7:33:81:1e:2c:64:60:
         22:a9:25:b1:58:f2:46:2a:9d:2b:c3:98:61:c0:52:be:d9:e7:
         0f:8b:48:ea:46:01:8a:74:90:1e:82:2d:d4:dc:bc:1d:af:df:
         07:61:40:6a:29:57:de:b1:c0:5f:47:72:62:0d:7c:4f:f4:1a:
         56:f4
-----BEGIN CERTIFICATE-----
MIICuTCCAiKgAwIBAgICEAAwDQYJKoZIhvcNAQEFBQAwRTELMAkGA1UEBhMCQVUx
EzARBgNVBAgTClNvbWUtU3RhdGUxITAfBgNVBAoTGEludGVybmV0IFdpZGdpdHMg
UHR5IEx0ZDAeFw0xNzExMTUxOTQ2MDJaFw0xODExMTUxOTQ2MDJaMIGBMQswCQYD
VQQGEwJDQTEQMA4GA1UECAwHT250YXJpbzEUMBIGA1UEBwwLTWlzc2lzc2F1Z2Ex
FzAVBgNVBAoMDnRvQmVTaWduZWQuY29tMRYwFAYDVQQLDA1JVCBEZXBhcnRtZW50
MRkwFwYDVQQDDBAqLnRvQmVTaWduZWQuY29tMIGfMA0GCSqGSIb3DQEBAQUAA4GN
ADCBiQKBgQDN9rECmhFbXilWx73IX/hVgRGlZXt1W/pE9llhoFitLV1+ak1pZPNy
CZts2pM1/1xKj2fq5L0Uep+m+3hGGzojDpgd8ohOxQWZqlM3Cqm8jPwMHEiF8Ta6
N8FmZvX+H3pEFVzUZiLSokTURivUMA+STN0YrlWSuC4nQS3wSzsx2QIDAQABo3sw
eTAJBgNVHRMEAjAAMCwGCWCGSAGG+EIBDQQfFh1PcGVuU1NMIEdlbmVyYXRlZCBD
ZXJ0aWZpY2F0ZTAdBgNVHQ4EFgQU2z7lsCdEEboKc1G2UNOJLFsw/RowHwYDVR0j
BBgwFoAUaXRlEvuF178J49/uyWEy/GUzehMwDQYJKoZIhvcNAQEFBQADgYEAKGmO
8eZiHuDdUSkJyQwk2lCxNd98r+9y4sxMOQLfc59Lf8AkBQ2xJV3iDfefb5zPWRmk
qCjUS0hTCGNaCyU3AGznM4EeLGRgIqklsVjyRiqdK8OYYcBSvtnnD4tI6kYBinSQ
HoIt1Ny8Ha/fB2FAailX3rHAX0dyYg18T/QaVvQ=
-----END CERTIFICATE-----
