Certificate:
    Data:
        Version: 3 (0x2)
        Serial Number: 4096 (0x1000)
    Signature Algorithm: sha1WithRSAEncryption
        Issuer: C=CA, ST=Ontario, L=Mississauga, O=UofT, OU=MCS, CN=Patrick/emailAddress=patrick.vickery@mail.utoronto.ca
        Validity
            Not Before: Nov 19 01:44:48 2017 GMT
            Not After : Nov 19 01:44:48 2018 GMT
        Subject: C=CA, ST=Ontario, L=Mississauga, O=UTM, OU=MAT, CN=Brian/emailAddress=some.email@mail.com
        Subject Public Key Info:
            Public Key Algorithm: rsaEncryption
                Public-Key: (1024 bit)
                Modulus:
                    00:e5:c6:3e:08:99:12:57:56:76:6c:27:33:ff:da:
                    a9:37:dc:85:92:70:0a:f8:87:88:4d:c9:78:4a:af:
                    3a:68:67:94:ea:4d:c8:8a:1a:df:38:7b:8a:3e:6f:
                    68:40:c1:2e:59:f1:f2:49:4d:0b:65:31:31:68:6c:
                    57:be:c8:0e:e6:2e:b5:57:16:a0:73:a0:7d:57:29:
                    56:7e:20:2f:f0:b2:fe:c9:06:09:7a:7b:27:66:1a:
                    15:65:dd:ea:97:9f:c0:e4:57:75:d4:67:dc:6c:b4:
                    ab:ee:44:e4:52:4d:f7:75:18:df:09:00:b8:40:77:
                    47:56:77:6d:87:b7:9c:ff:81
                Exponent: 65537 (0x10001)
        X509v3 extensions:
            X509v3 Basic Constraints: 
                CA:FALSE
            Netscape Comment: 
                OpenSSL Generated Certificate
            X509v3 Subject Key Identifier: 
                81:A5:CA:0B:F2:F8:56:43:B5:FE:BD:BF:D3:43:4D:A1:02:A8:DB:37
            X509v3 Authority Key Identifier: 
                keyid:8B:2C:A5:4B:3B:BE:94:FA:9D:AE:19:E3:84:E0:60:38:4E:E9:44:38

    Signature Algorithm: sha1WithRSAEncryption
         3e:4d:e1:53:52:8d:68:eb:d5:c9:0e:b5:31:8c:bc:33:cf:8f:
         26:e9:9a:2a:5b:42:bd:13:25:b4:4a:2e:dd:53:a1:88:2d:4e:
         a6:4f:a8:b9:6d:f9:4f:8a:fa:91:17:e7:3f:23:a7:c1:ca:13:
         1e:84:01:8d:d2:b7:10:b6:c4:94:8e:27:90:88:d9:3d:52:b2:
         0d:1e:43:48:a3:d9:ac:d3:6e:16:64:26:13:0f:ca:ba:da:bc:
         d2:cb:f4:2b:bf:26:91:74:d0:c1:8f:e7:dc:6a:a2:dd:c4:e0:
         8c:d8:3f:89:58:84:e1:83:38:7d:72:11:5b:3a:11:17:14:e7:
         f9:af:2a:b3:7c:1d:d4:6b:83:b7:1b:90:ba:88:ca:27:f2:e6:
         89:e5:d4:44:25:bc:40:c7:d7:82:64:b7:77:11:5c:4e:86:cc:
         30:b3:32:a1:0d:5e:18:af:15:f6:21:e9:da:28:cc:45:cb:4a:
         b4:17:88:28:28:fb:2f:f4:67:11:59:d7:6e:a3:9e:bb:3d:97:
         89:ec:c0:7c:0d:4e:81:ef:11:4b:f6:4a:6a:81:90:ed:f2:f8:
         af:ab:1e:3a:3b:66:cb:3c:19:a3:b6:51:54:a7:e7:ba:66:90:
         b3:f3:a7:57:03:4c:de:39:f6:b4:76:02:f8:1c:4b:73:e6:d4:
         b0:4b:a7:2f
-----BEGIN CERTIFICATE-----
MIIDjzCCAnegAwIBAgICEAAwDQYJKoZIhvcNAQEFBQAwgZUxCzAJBgNVBAYTAkNB
MRAwDgYDVQQIEwdPbnRhcmlvMRQwEgYDVQQHEwtNaXNzaXNzYXVnYTENMAsGA1UE
ChMEVW9mVDEMMAoGA1UECxMDTUNTMRAwDgYDVQQDEwdQYXRyaWNrMS8wLQYJKoZI
hvcNAQkBFiBwYXRyaWNrLnZpY2tlcnlAbWFpbC51dG9yb250by5jYTAeFw0xNzEx
MTkwMTQ0NDhaFw0xODExMTkwMTQ0NDhaMIGFMQswCQYDVQQGEwJDQTEQMA4GA1UE
CAwHT250YXJpbzEUMBIGA1UEBwwLTWlzc2lzc2F1Z2ExDDAKBgNVBAoMA1VUTTEM
MAoGA1UECwwDTUFUMQ4wDAYDVQQDDAVCcmlhbjEiMCAGCSqGSIb3DQEJARYTc29t
ZS5lbWFpbEBtYWlsLmNvbTCBnzANBgkqhkiG9w0BAQEFAAOBjQAwgYkCgYEA5cY+
CJkSV1Z2bCcz/9qpN9yFknAK+IeITcl4Sq86aGeU6k3IihrfOHuKPm9oQMEuWfHy
SU0LZTExaGxXvsgO5i61Vxagc6B9VylWfiAv8LL+yQYJensnZhoVZd3ql5/A5Fd1
1GfcbLSr7kTkUk33dRjfCQC4QHdHVndth7ec/4ECAwEAAaN7MHkwCQYDVR0TBAIw
ADAsBglghkgBhvhCAQ0EHxYdT3BlblNTTCBHZW5lcmF0ZWQgQ2VydGlmaWNhdGUw
HQYDVR0OBBYEFIGlygvy+FZDtf69v9NDTaECqNs3MB8GA1UdIwQYMBaAFIsspUs7
vpT6na4Z44TgYDhO6UQ4MA0GCSqGSIb3DQEBBQUAA4IBAQA+TeFTUo1o69XJDrUx
jLwzz48m6ZoqW0K9EyW0Si7dU6GILU6mT6i5bflPivqRF+c/I6fByhMehAGN0rcQ
tsSUjieQiNk9UrINHkNIo9ms024WZCYTD8q62rzSy/QrvyaRdNDBj+fcaqLdxOCM
2D+JWIThgzh9chFbOhEXFOf5ryqzfB3Ua4O3G5C6iMon8uaJ5dREJbxAx9eCZLd3
EVxOhswwszKhDV4YrxX2IenaKMxFy0q0F4goKPsv9GcRWdduo567PZeJ7MB8DU6B
7xFL9kpqgZDt8vivqx46O2bLPBmjtlFUp+e6ZpCz86dXA0zeOfa0dgL4HEtz5tSw
S6cv
-----END CERTIFICATE-----
