Certificate:
    Data:
        Version: 3 (0x2)
        Serial Number: 4098 (0x1002)
    Signature Algorithm: sha1WithRSAEncryption
        Issuer: C=CA, ST=Ontario, L=Mississauga, O=UofT Mississauga, OU=MCS, CN=*.arnold.com
        Validity
            Not Before: Nov 13 22:49:03 2017 GMT
            Not After : Nov 13 22:49:03 2018 GMT
        Subject: C=CA, ST=Ontario, L=Mississauga, O=serguei.com, OU=IT Department, CN=*.serguei.com
        Subject Public Key Info:
            Public Key Algorithm: rsaEncryption
                Public-Key: (1024 bit)
                Modulus:
                    00:b9:98:fc:c0:13:f8:66:38:79:cc:bf:fb:20:12:
                    30:ea:85:b0:38:3a:76:9b:aa:16:6e:ba:1f:db:70:
                    80:a4:75:fe:7c:99:19:e5:b8:1d:02:e6:ae:4d:79:
                    3f:75:ae:76:77:f8:f5:d5:7e:86:07:56:af:c2:33:
                    43:a4:11:d5:92:f8:20:f5:fa:3f:71:f1:32:d3:df:
                    98:c6:a3:e6:ee:58:69:1b:f1:61:c1:90:05:fe:d7:
                    47:69:2f:cd:0d:77:28:66:51:8a:e2:a3:2d:4e:3a:
                    f1:8e:42:5b:e5:a1:c1:cb:fc:11:3c:bd:9e:26:cd:
                    26:53:48:7b:ca:ce:4c:0b:a9
                Exponent: 65537 (0x10001)
        X509v3 extensions:
            X509v3 Basic Constraints: 
                CA:FALSE
            Netscape Comment: 
                OpenSSL Generated Certificate
            X509v3 Subject Key Identifier: 
                59:55:F4:62:DF:F6:F5:1C:D9:50:A6:31:26:33:50:81:07:C2:18:7D
            X509v3 Authority Key Identifier: 
                keyid:FA:C8:D4:6F:68:88:6A:93:86:ED:B7:92:88:F4:10:89:06:54:15:F0

    Signature Algorithm: sha1WithRSAEncryption
         be:12:87:55:77:f2:1a:a8:c0:1b:c3:b9:67:11:d9:92:4b:06:
         c5:29:7d:ca:5d:78:39:73:01:91:d8:0a:b4:e0:bf:95:a9:8a:
         fe:3d:3c:34:8f:4c:8a:3a:3f:5e:bd:c1:25:f7:d7:e1:5c:43:
         cc:6e:33:7f:c8:2d:a1:56:7c:2d:d7:a4:95:8a:a8:ac:35:40:
         9e:ae:b8:f1:9d:7b:ce:aa:aa:09:af:c6:d1:a4:1f:00:83:76:
         27:ad:c1:6f:6c:c4:ce:d6:fc:76:80:16:22:69:08:62:04:7c:
         70:c9:79:3b:b3:44:d8:1a:90:47:1f:e4:60:cc:eb:b9:9a:f7:
         a4:b8
-----BEGIN CERTIFICATE-----
MIIC4jCCAkugAwIBAgICEAIwDQYJKoZIhvcNAQEFBQAwdTELMAkGA1UEBhMCQ0Ex
EDAOBgNVBAgMB09udGFyaW8xFDASBgNVBAcMC01pc3Npc3NhdWdhMRkwFwYDVQQK
DBBVb2ZUIE1pc3Npc3NhdWdhMQwwCgYDVQQLDANNQ1MxFTATBgNVBAMMDCouYXJu
b2xkLmNvbTAeFw0xNzExMTMyMjQ5MDNaFw0xODExMTMyMjQ5MDNaMHsxCzAJBgNV
BAYTAkNBMRAwDgYDVQQIDAdPbnRhcmlvMRQwEgYDVQQHDAtNaXNzaXNzYXVnYTEU
MBIGA1UECgwLc2VyZ3VlaS5jb20xFjAUBgNVBAsMDUlUIERlcGFydG1lbnQxFjAU
BgNVBAMMDSouc2VyZ3VlaS5jb20wgZ8wDQYJKoZIhvcNAQEBBQADgY0AMIGJAoGB
ALmY/MAT+GY4ecy/+yASMOqFsDg6dpuqFm66H9twgKR1/nyZGeW4HQLmrk15P3Wu
dnf49dV+hgdWr8IzQ6QR1ZL4IPX6P3HxMtPfmMaj5u5YaRvxYcGQBf7XR2kvzQ13
KGZRiuKjLU468Y5CW+Whwcv8ETy9nibNJlNIe8rOTAupAgMBAAGjezB5MAkGA1Ud
EwQCMAAwLAYJYIZIAYb4QgENBB8WHU9wZW5TU0wgR2VuZXJhdGVkIENlcnRpZmlj
YXRlMB0GA1UdDgQWBBRZVfRi3/b1HNlQpjEmM1CBB8IYfTAfBgNVHSMEGDAWgBT6
yNRvaIhqk4btt5KI9BCJBlQV8DANBgkqhkiG9w0BAQUFAAOBgQC+EodVd/IaqMAb
w7lnEdmSSwbFKX3KXXg5cwGR2Aq04L+VqYr+PTw0j0yKOj9evcEl99fhXEPMbjN/
yC2hVnwt16SViqisNUCerrjxnXvOqqoJr8bRpB8Ag3YnrcFvbMTO1vx2gBYiaQhi
BHxwyXk7s0TYGpBHH+RgzOu5mvekuA==
-----END CERTIFICATE-----
